target datalayout = "e-m:e-p270:32:32-p271:32:32-p272:64:64-i64:64-i128:128-f80:128-n8:16:32:64-S128"
target triple = "x86_64-pc-linux-gnu"

%struct.Aes = type { [60 x i32], i32, i32, [8 x i8], [4 x i32], [4 x i32], [2 x i32], i32, [4 x i8], %struct.Gcm, ptr, [8 x i8] }
%struct.Gcm = type { [16 x i8], [32 x [16 x i8]] }

; Function Attrs: nounwind uwtable
define i32 @wc_AesGcmSetKey(ptr noundef %0, ptr noundef %1, i32 noundef %2) #0 {
  %4 = alloca i32, align 4
  %5 = alloca ptr, align 8
  %6 = alloca ptr, align 8
  %7 = alloca i32, align 4
  %8 = alloca i32, align 4
  %9 = alloca [16 x i8], align 16
  %10 = alloca i32, align 4
  store ptr %0, ptr %5, align 8, !tbaa !3
  store ptr %1, ptr %6, align 8, !tbaa !8
  store i32 %2, ptr %7, align 4, !tbaa !10
  call void @llvm.lifetime.start.p0(i64 4, ptr %8) #6
  call void @llvm.lifetime.start.p0(i64 16, ptr %9) #6
  %11 = load i32, ptr %7, align 4, !tbaa !10
  %12 = icmp eq i32 %11, 16
  br i1 %12, label %20, label %13

13:                                               ; preds = %3
  %14 = load i32, ptr %7, align 4, !tbaa !10
  %15 = icmp eq i32 %14, 24
  br i1 %15, label %20, label %16

16:                                               ; preds = %13
  %17 = load i32, ptr %7, align 4, !tbaa !10
  %18 = icmp eq i32 %17, 32
  br i1 %18, label %20, label %19

19:                                               ; preds = %16
  store i32 -173, ptr %4, align 4
  store i32 1, ptr %10, align 4
  br label %58

20:                                               ; preds = %16, %13, %3
  %21 = load ptr, ptr %5, align 8, !tbaa !3
  %22 = icmp eq ptr %21, null
  br i1 %22, label %26, label %23

23:                                               ; preds = %20
  %24 = load ptr, ptr %6, align 8, !tbaa !8
  %25 = icmp eq ptr %24, null
  br i1 %25, label %26, label %27

26:                                               ; preds = %23, %20
  store i32 -173, ptr %4, align 4
  store i32 1, ptr %10, align 4
  br label %58

27:                                               ; preds = %23
  %28 = getelementptr inbounds [16 x i8], ptr %9, i64 0, i64 0
  call void @llvm.memset.p0.i64(ptr align 16 %28, i8 0, i64 16, i1 false)
  %29 = load ptr, ptr %5, align 8, !tbaa !3
  %30 = load ptr, ptr %6, align 8, !tbaa !8
  %31 = load i32, ptr %7, align 4, !tbaa !10
  %32 = getelementptr inbounds [16 x i8], ptr %9, i64 0, i64 0
  %33 = call i32 @wc_AesSetKey(ptr noundef %29, ptr noundef %30, i32 noundef %31, ptr noundef %32, i32 noundef 0)
  store i32 %33, ptr %8, align 4, !tbaa !10
  %34 = load i32, ptr %8, align 4, !tbaa !10
  %35 = icmp eq i32 %34, 0
  br i1 %35, label %36, label %50

36:                                               ; preds = %27
  br label %37

37:                                               ; preds = %36
  br label %38

38:                                               ; preds = %37
  br label %39

39:                                               ; preds = %38
  %40 = load ptr, ptr %5, align 8, !tbaa !3
  %41 = getelementptr inbounds [16 x i8], ptr %9, i64 0, i64 0
  %42 = load ptr, ptr %5, align 8, !tbaa !3
  %43 = getelementptr inbounds nuw %struct.Aes, ptr %42, i32 0, i32 9
  %44 = getelementptr inbounds nuw %struct.Gcm, ptr %43, i32 0, i32 0
  %45 = getelementptr inbounds [16 x i8], ptr %44, i64 0, i64 0
  %46 = call i32 @wc_AesEncrypt(ptr noundef %40, ptr noundef %41, ptr noundef %45)
  store i32 %46, ptr %8, align 4, !tbaa !10
  br label %47

47:                                               ; preds = %39
  br label %48

48:                                               ; preds = %47
  br label %49

49:                                               ; preds = %48
  br label %50

50:                                               ; preds = %49, %27
  %51 = load i32, ptr %8, align 4, !tbaa !10
  %52 = icmp eq i32 %51, 0
  br i1 %52, label %53, label %56

53:                                               ; preds = %50
  %54 = load ptr, ptr %5, align 8, !tbaa !3
  %55 = getelementptr inbounds nuw %struct.Aes, ptr %54, i32 0, i32 9
  call void @GenerateM0(ptr noundef %55)
  br label %56

56:                                               ; preds = %53, %50
  %57 = load i32, ptr %8, align 4, !tbaa !10
  store i32 %57, ptr %4, align 4
  store i32 1, ptr %10, align 4
  br label %58

58:                                               ; preds = %56, %26, %19
  call void @llvm.lifetime.end.p0(i64 16, ptr %9) #6
  call void @llvm.lifetime.end.p0(i64 4, ptr %8) #6
  %59 = load i32, ptr %4, align 4
  ret i32 %59
}