; Function Attrs: nofree norecurse nounwind memory(argmem: readwrite, inaccessiblemem: readwrite) uwtable
define range(i32 -226, 1) i32 @wc_AesGcmSetKey(ptr noundef %0, ptr noundef readonly captures(address_is_null) %1, i32 noundef %2) local_unnamed_addr #0 {
  %4 = alloca [16 x i8], align 16
  call void @llvm.lifetime.start.p0(i64 16, ptr nonnull %4) #12
  switch i32 %2, label %.thread [
    i32 32, label %5
    i32 24, label %5
    i32 16, label %5
  ]

5:                                                ; preds = %3, %3, %3
  %6 = icmp eq ptr %0, null
  %7 = icmp eq ptr %1, null
  %or.cond5 = or i1 %6, %7
  br i1 %or.cond5, label %.thread, label %8

8:                                                ; preds = %5
  call void @llvm.memset.p0.i64(ptr noundef nonnull align 16 dereferenceable(16) %4, i8 0, i64 16, i1 false)
  %9 = call i32 @wc_AesSetKey(ptr noundef nonnull %0, ptr noundef nonnull %1, i32 noundef %2, ptr noundef nonnull %4, i32 noundef 0)
  %10 = icmp eq i32 %9, 0
  br i1 %10, label %11, label %.thread

11:                                               ; preds = %8
  %12 = getelementptr inbounds nuw i8, ptr %0, i64 304
  %13 = call fastcc i32 @wc_AesEncrypt(ptr noundef %0, ptr noundef %4, ptr noundef %12)
  %14 = icmp eq i32 %13, 0
  br i1 %14, label %15, label %.thread

15:                                               ; preds = %11
  call void @GenerateM0(ptr noundef nonnull %12)
  br label %.thread

.thread:                                          ; preds = %8, %11, %15, %5, %3
  %.019 = phi i32 [ -173, %3 ], [ -173, %5 ], [ 0, %15 ], [ %13, %11 ], [ %9, %8 ]
  call void @llvm.lifetime.end.p0(i64 16, ptr nonnull %4) #12
  ret i32 %.019
}